(lp0
(dp1
Vpath
p2
V/
p3
sVdomain
p4
Vweibo.com
p5
sVname
p6
VYF-Ugrow-G0
p7
sVvalue
p8
V3a02f95fa8b3c9dc73c74bc9f2ca4fc6
p9
sVsecure
p10
I00
sa(dp11
Vdomain
p12
V.weibo.com
p13
sVsecure
p14
I00
sVvalue
p15
V1483799623
p16
sVexpiry
p17
F1483799626.989784
sVpath
p18
g3
sVname
p19
VALF
p20
sa(dp21
Vpath
p22
g3
sVdomain
p23
V.weibo.com
p24
sVname
p25
VSUS
p26
sVvalue
p27
VSID-5579712614-1452263624-JA-g2ifw-169083a437fa540448b1ff6e5764805b
p28
sVsecure
p29
I00
sa(dp30
Vpath
p31
g3
sVdomain
p32
V.weibo.com
p33
sVname
p34
Vlogin_sid_t
p35
sVvalue
p36
V1cda9adf001483fb3c35a761aed9e295
p37
sVsecure
p38
I00
sa(dp39
Vpath
p40
g3
sVdomain
p41
V.weibo.com
p42
sVname
p43
VSUE
p44
sVvalue
p45
Ves%3D9a15a9f11ae5417f4f1585d2b121c871%26ev%3Dv1%26es2%3D0a8644fda9cee77e92885082068e7fc8%26rs0%3Dc7wOcZa%252B%252BLzGLK3QSQ330%252FFq%252F4Gjrk%252B9%252FW%252BjHg4adD0SrwhX0pHvyjQgP5x1wnirVsiXcjvqd3j3WPmjPXLQpEyZlYvyxtYWphvXKfsxdh1J0Ez70C%252FCMw0Ehk82PXQXOOig0QOlvOnVmEtLXgYPPNpppq0SUGVXHCDq%252BgV%252BJ9M%253D%26rv%3D0
p46
sVsecure
p47
I00
sa(dp48
Vpath
p49
g3
sVdomain
p50
V.weibo.com
p51
sVname
p52
V_s_tentry
p53
sVvalue
p54
Vpassport.weibo.com
p55
sVsecure
p56
I00
sa(dp57
Vpath
p58
g3
sVdomain
p59
Vweibo.com
p60
sVname
p61
VYF-Page-G0
p62
sVvalue
p63
V9a31b867b34a0b4839fa27a4ab6ec79f
p64
sVsecure
p65
I00
sa(dp66
Vdomain
p67
V.weibo.com
p68
sVsecure
p69
I00
sVvalue
p70
V3440206462983.042.1452263602936
p71
sVexpiry
p72
I1767623602
sVpath
p73
g3
sVname
p74
VSINAGLOBAL
p75
sa(dp76
Vpath
p77
g3
sVdomain
p78
V.weibo.com
p79
sVname
p80
VApache
p81
sVvalue
p82
V3440206462983.042.1452263602936
p83
sVsecure
p84
I00
sa(dp85
Vdomain
p86
V.weibo.com
p87
sVsecure
p88
I00
sVvalue
p89
V1452263602945:1:1:1:3440206462983.042.1452263602936:
p90
sVexpiry
p91
I1483367602
sVpath
p92
g3
sVname
p93
VULV
p94
sa(dp95
Vpath
p96
g3
sVdomain
p97
V.weibo.com
p98
sVname
p99
VSUP
p100
sVvalue
p101
Vcv%3D1%26bt%3D1452263624%26et%3D1452350024%26d%3Dc909%26i%3D805b%26us%3D1%26vf%3D0%26vt%3D0%26ac%3D2%26st%3D0%26uid%3D5579712614%26name%3D2823128008%2540qq.com%26nick%3D%25E8%2591%25A3%25E5%25B0%258F%25E5%25A7%2590DE%25E9%25AB%2598%25E8%25B7%259F%25E9%259E%258B%26fmp%3D%26lcp%3D2015-12-19%252016%253A51%253A38
p102
sVsecure
p103
I00
sa(dp104
Vpath
p105
g3
sVdomain
p106
V.weibo.com
p107
sVname
p108
VSUB
p109
sVvalue
p110
V_2A257i7iYDeTxGeNL7FsW8SzKyjiIHXVY4K1QrDV8PUNbuNAMLW2lkW9LHes5pQ32oXwUlCLj4oaTqd5nOfKcKw..
p111
sVsecure
p112
I00
sa(dp113
Vdomain
p114
V.weibo.com
p115
sVsecure
p116
I00
sVvalue
p117
V05iqyO5mw21iwh
p118
sVexpiry
p119
F1483799627.989593
sVpath
p120
g3
sVname
p121
VSUHB
p122
sa(dp123
Vdomain
p124
V.weibo.com
p125
sVsecure
p126
I00
sVvalue
p127
V0033WrSXqPxfM725Ws9jqgMF55529P9D9WFRN-8L8q232EIVxE1XKYq55JpX5K2t
p128
sVexpiry
p129
F1483799627.989526
sVpath
p130
g3
sVname
p131
VSUBP
p132
sa(dp133
Vpath
p134
g3
sVdomain
p135
V.weibo.com
p136
sVname
p137
VSSOLoginState
p138
sVvalue
p139
V1452263624
p140
sVsecure
p141
I00
sa(dp142
Vdomain
p143
V.weibo.com
p144
sVsecure
p145
I00
sVvalue
p146
V2823128008@qq.com
p147
sVexpiry
p148
I1453127628
sVpath
p149
g3
sVname
p150
Vun
p151
sa(dp152
Vpath
p153
g3
sVdomain
p154
Vweibo.com
p155
sVname
p156
VYF-V5-G0
p157
sVvalue
p158
Va2489c19ecf98bbe86a7bf6f0edcb071
p159
sVsecure
p160
I00
sa(dp161
Vdomain
p162
V.weibo.com
p163
sVsecure
p164
I00
sVvalue
p165
V6
p166
sVexpiry
p167
F1452868428.364665
sVpath
p168
g3
sVname
p169
Vwvr
p170
sa.