(lp0
(dp1
Vpath
p2
V/
p3
sVdomain
p4
V.weibo.com
p5
sVname
p6
V_s_tentry
p7
sVvalue
p8
Vpassport.weibo.com
p9
sVsecure
p10
I00
sa(dp11
Vpath
p12
g3
sVdomain
p13
V.weibo.com
p14
sVname
p15
VSUE
p16
sVvalue
p17
Ves%3D294a07035a58fcc0e6db19d05c215d15%26ev%3Dv1%26es2%3Dc6ec2fac36ccb85791496e651b091c54%26rs0%3DbDDsmfbglxDFjuazwOblLBkltegjM6Ze%252FttgmUrwE2pV3nv9oM6l23z1qkOYvIAr734GdV848%252B0G9j9M1Qb6X%252BGKK8ddKoJdLhiVc8g6DvQJUs9tFvEdd0vWe98IuoVv3EGyHoa6YUYTPDX%252FVbbUxZGWjALc3j6nWzhI5w0KxV8%253D%26rv%3D0
p18
sVsecure
p19
I00
sa(dp20
Vpath
p21
g3
sVdomain
p22
Vweibo.com
p23
sVname
p24
VYF-Page-G0
p25
sVvalue
p26
V074bd03ae4e08433ef66c71c2777fd84
p27
sVsecure
p28
I00
sa(dp29
Vpath
p30
g3
sVdomain
p31
V.weibo.com
p32
sVname
p33
VYF-Ugrow-G0
p34
sVvalue
p35
V9642b0b34b4c0d569ed7a372f8823a8e
p36
sVsecure
p37
I00
sa(dp38
Vdomain
p39
V.weibo.com
p40
sVsecure
p41
I00
sVvalue
p42
V2823128008@qq.com
p43
sVexpiry
p44
I1457705504
sVpath
p45
g3
sVname
p46
Vun
p47
sa(dp48
Vpath
p49
g3
sVdomain
p50
V.weibo.com
p51
sVname
p52
VYF-Page-G0
p53
sVvalue
p54
V23b9d9eac864b0d725a27007679967df
p55
sVsecure
p56
I00
sa(dp57
Vpath
p58
g3
sVdomain
p59
V.weibo.com
p60
sVname
p61
Vlogin_sid_t
p62
sVvalue
p63
Vf36c828b81bbbd786432272a3061ace7
p64
sVsecure
p65
I00
sa(dp66
Vdomain
p67
V.weibo.com
p68
sVsecure
p69
I00
sVvalue
p70
V1488377506
p71
sVexpiry
p72
I1488377502
sVpath
p73
g3
sVname
p74
VALF
p75
sa(dp76
Vpath
p77
g3
sVdomain
p78
V.weibo.com
p79
sVname
p80
VSUS
p81
sVvalue
p82
VSID-5579712614-1456841507-JA-bz5k1-422b6384158d7df09a5d3cb82894ca6b
p83
sVsecure
p84
I00
sa(dp85
Vdomain
p86
V.weibo.com
p87
sVsecure
p88
I00
sVvalue
p89
V9597256991546.602.1456841500717
p90
sVexpiry
p91
I1772201500
sVpath
p92
g3
sVname
p93
VSINAGLOBAL
p94
sa(dp95
Vpath
p96
g3
sVdomain
p97
V.weibo.com
p98
sVname
p99
VApache
p100
sVvalue
p101
V9597256991546.602.1456841500717
p102
sVsecure
p103
I00
sa(dp104
Vdomain
p105
V.weibo.com
p106
sVsecure
p107
I00
sVvalue
p108
V1456841500722:1:1:1:9597256991546.602.1456841500717:
p109
sVexpiry
p110
I1487945500
sVpath
p111
g3
sVname
p112
VULV
p113
sa(dp114
Vpath
p115
g3
sVdomain
p116
V.weibo.com
p117
sVname
p118
VSUP
p119
sVvalue
p120
Vcv%3D1%26bt%3D1456841507%26et%3D1456927907%26d%3Dc909%26i%3Dca6b%26us%3D1%26vf%3D0%26vt%3D0%26ac%3D0%26st%3D0%26uid%3D5579712614%26name%3D2823128008%2540qq.com%26nick%3D%25E8%2591%25A3%25E5%25B0%258F%25E5%25A7%2590DE%25E9%25AB%2598%25E8%25B7%259F%25E9%259E%258B%26fmp%3D%26lcp%3D2015-12-19%252016%253A51%253A38
p121
sVsecure
p122
I00
sa(dp123
Vpath
p124
g3
sVdomain
p125
V.weibo.com
p126
sVname
p127
VSUB
p128
sVvalue
p129
V_2A2570dNzDeTxGeNL7FsW8SzKyjiIHXVYp0O7rDV8PUNbuNAMLRn8kW9LHeuQYHsExHOJeCFGC6wAN6NMPB-9XQ..
p130
sVsecure
p131
I00
sa(dp132
Vdomain
p133
V.weibo.com
p134
sVsecure
p135
I00
sVvalue
p136
V0033WrSXqPxfM725Ws9jqgMF55529P9D9WFRN-8L8q232EIVxE1XKYq55JpX5K2t
p137
sVexpiry
p138
I1488377503
sVpath
p139
g3
sVname
p140
VSUBP
p141
sa(dp142
Vdomain
p143
V.weibo.com
p144
sVsecure
p145
I00
sVvalue
p146
V0btsW3L_yKNwNr
p147
sVexpiry
p148
I1488377503
sVpath
p149
g3
sVname
p150
VSUHB
p151
sa(dp152
Vpath
p153
g3
sVdomain
p154
V.weibo.com
p155
sVname
p156
VSSOLoginState
p157
sVvalue
p158
V1456841507
p159
sVsecure
p160
I00
sa(dp161
Vpath
p162
g3
sVdomain
p163
V.weibo.com
p164
sVname
p165
VYF-V5-G0
p166
sVvalue
p167
V16139189c1dbd74e7d073bc6ebfa4935
p168
sVsecure
p169
I00
sa(dp170
Vpath
p171
g3
sVdomain
p172
V.weibo.com
p173
sVname
p174
VChromeDriverwjers908fljsdf37459fsdfgdfwru
p175
sVvalue
p176
V
p177
sVsecure
p178
I00
sa(dp179
Vdomain
p180
V.weibo.com
p181
sVsecure
p182
I00
sVvalue
p183
V6
p184
sVexpiry
p185
I1457446306
sVpath
p186
g3
sVname
p187
Vwvr
p188
sa.